SF:/mnt/d/projects/rust/tutorials/cmd_apps/grss/src/lib.rs
FN:17,_RINvCsc5K1AOdqydf_10grss_clone12find_matchesQINtNtCsl68DTka7d3U_5alloc3vec3VechEECs2BNEVAsQzi1_3cli
FN:19,_RNCINvCsc5K1AOdqydf_10grss_clone12find_matchesQINtNtCsl68DTka7d3U_5alloc3vec3VechEE0Cs2BNEVAsQzi1_3cli
FN:17,_RINvCsihzFk97AWl7_10grss_clone12find_matchespEB2_
FN:19,_RNCINvCsihzFk97AWl7_10grss_clone12find_matchespE0B4_
FN:17,_RINvCsc5K1AOdqydf_10grss_clone12find_matchesQINtNtCsl68DTka7d3U_5alloc3vec3VechEECsddI3bBD5qOX_12integrations
FN:19,_RNCINvCsc5K1AOdqydf_10grss_clone12find_matchesQINtNtCsl68DTka7d3U_5alloc3vec3VechEE0CsddI3bBD5qOX_12integrations
FNDA:4,_RINvCsc5K1AOdqydf_10grss_clone12find_matchesQINtNtCsl68DTka7d3U_5alloc3vec3VechEECs2BNEVAsQzi1_3cli
FNDA:1,_RNCINvCsc5K1AOdqydf_10grss_clone12find_matchesQINtNtCsl68DTka7d3U_5alloc3vec3VechEE0Cs2BNEVAsQzi1_3cli
FNDA:0,_RINvCsihzFk97AWl7_10grss_clone12find_matchespEB2_
FNDA:0,_RNCINvCsihzFk97AWl7_10grss_clone12find_matchespE0B4_
FNDA:1,_RINvCsc5K1AOdqydf_10grss_clone12find_matchesQINtNtCsl68DTka7d3U_5alloc3vec3VechEECsddI3bBD5qOX_12integrations
FNDA:0,_RNCINvCsc5K1AOdqydf_10grss_clone12find_matchesQINtNtCsl68DTka7d3U_5alloc3vec3VechEE0CsddI3bBD5qOX_12integrations
FNF:2
FNH:2
DA:17,5
DA:18,5
DA:19,5
DA:20,17
DA:21,17
DA:22,3
DA:23,14
DA:25,4
DA:26,5
BRF:0
BRH:0
LF:10
LH:10
end_of_record
SF:/mnt/d/projects/rust/tutorials/cmd_apps/grss/src/main.rs
FN:15,_RNCNvXs0_Cs2NAN5LL8JOw_10grss_cloneNtB7_4ArgsNtNtCs5vdglM0hTGn_12clap_builder6derive14FromArgMatches20from_arg_matches_mut0B7_
FN:19,_RNCNvXs0_Cs2NAN5LL8JOw_10grss_cloneNtB7_4ArgsNtNtCs5vdglM0hTGn_12clap_builder6derive14FromArgMatches20from_arg_matches_muts_0B7_
FN:15,_RNCNvXs0_Cs2NAN5LL8JOw_10grss_cloneNtB7_4ArgsNtNtCs5vdglM0hTGn_12clap_builder6derive14FromArgMatches27update_from_arg_matches_mut0B7_
FN:19,_RNCNvXs0_Cs2NAN5LL8JOw_10grss_cloneNtB7_4ArgsNtNtCs5vdglM0hTGn_12clap_builder6derive14FromArgMatches27update_from_arg_matches_muts_0B7_
FN:50,_RNvCs2NAN5LL8JOw_10grss_clone12find_matches
FN:70,_RNvCs2NAN5LL8JOw_10grss_clone4main
FN:15,_RNCNvXs0_CsiHGSl8jYVQm_10grss_cloneNtB7_4ArgsNtNtCs5vdglM0hTGn_12clap_builder6derive14FromArgMatches27update_from_arg_matches_mut0B7_
FN:19,_RNCNvXs0_CsiHGSl8jYVQm_10grss_cloneNtB7_4ArgsNtNtCs5vdglM0hTGn_12clap_builder6derive14FromArgMatches27update_from_arg_matches_muts_0B7_
FN:15,_RNCNvXs0_CsiHGSl8jYVQm_10grss_cloneNtB7_4ArgsNtNtCs5vdglM0hTGn_12clap_builder6derive14FromArgMatches20from_arg_matches_mut0B7_
FN:19,_RNCNvXs0_CsiHGSl8jYVQm_10grss_cloneNtB7_4ArgsNtNtCs5vdglM0hTGn_12clap_builder6derive14FromArgMatches20from_arg_matches_muts_0B7_
FN:50,_RNvCsiHGSl8jYVQm_10grss_clone12find_matches
FN:70,_RNvCsiHGSl8jYVQm_10grss_clone4main
FNDA:0,_RNCNvXs0_Cs2NAN5LL8JOw_10grss_cloneNtB7_4ArgsNtNtCs5vdglM0hTGn_12clap_builder6derive14FromArgMatches20from_arg_matches_mut0B7_
FNDA:0,_RNCNvXs0_Cs2NAN5LL8JOw_10grss_cloneNtB7_4ArgsNtNtCs5vdglM0hTGn_12clap_builder6derive14FromArgMatches20from_arg_matches_muts_0B7_
FNDA:0,_RNCNvXs0_Cs2NAN5LL8JOw_10grss_cloneNtB7_4ArgsNtNtCs5vdglM0hTGn_12clap_builder6derive14FromArgMatches27update_from_arg_matches_mut0B7_
FNDA:0,_RNCNvXs0_Cs2NAN5LL8JOw_10grss_cloneNtB7_4ArgsNtNtCs5vdglM0hTGn_12clap_builder6derive14FromArgMatches27update_from_arg_matches_muts_0B7_
FNDA:0,_RNvCs2NAN5LL8JOw_10grss_clone12find_matches
FNDA:0,_RNvCs2NAN5LL8JOw_10grss_clone4main
FNDA:0,_RNCNvXs0_CsiHGSl8jYVQm_10grss_cloneNtB7_4ArgsNtNtCs5vdglM0hTGn_12clap_builder6derive14FromArgMatches27update_from_arg_matches_mut0B7_
FNDA:0,_RNCNvXs0_CsiHGSl8jYVQm_10grss_cloneNtB7_4ArgsNtNtCs5vdglM0hTGn_12clap_builder6derive14FromArgMatches27update_from_arg_matches_muts_0B7_
FNDA:0,_RNCNvXs0_CsiHGSl8jYVQm_10grss_cloneNtB7_4ArgsNtNtCs5vdglM0hTGn_12clap_builder6derive14FromArgMatches20from_arg_matches_mut0B7_
FNDA:0,_RNCNvXs0_CsiHGSl8jYVQm_10grss_cloneNtB7_4ArgsNtNtCs5vdglM0hTGn_12clap_builder6derive14FromArgMatches20from_arg_matches_muts_0B7_
FNDA:1,_RNvCsiHGSl8jYVQm_10grss_clone12find_matches
FNDA:5,_RNvCsiHGSl8jYVQm_10grss_clone4main
FNF:4
FNH:2
DA:15,0
DA:19,0
DA:50,1
DA:54,1
DA:55,0
DA:57,0
DA:58,0
DA:59,0
DA:60,0
DA:61,0
DA:63,0
DA:64,1
DA:70,5
DA:71,5
DA:72,5
DA:73,4
DA:74,5
BRF:0
BRH:0
LF:17
LH:8
end_of_record